target datalayout = "e-m:e-p270:32:32-p271:32:32-p272:64:64-i64:64-i128:128-f80:128-n8:16:32:64-S128"
target triple = "x86_64-pc-linux-gnu"

%struct._ir_bitqueue = type { i32, i32, ptr }
%struct._ir_gvn_hash = type { i32, ptr, ptr }
%struct._ir_ctx = type { ptr, i32, i32, i32, i32, i32, i32, i32, i32, i32, i32, %struct._ir_insn, ptr, ptr, ptr, i32, i32, i32, ptr, ptr, ptr, ptr, ptr, ptr, i32, i32, i64, i32, i32, i32, i64, i32, i32, i32, i32, ptr, ptr, ptr, ptr, ptr, ptr, %union.anon.13, ptr, i32, i32, i32, i64, i32, i32, i32, ptr, ptr, ptr, ptr, %struct._ir_strtab, [61 x i32], [14 x i32] }
%struct._ir_insn = type { %struct.anon, %union.anon.5 }
%struct.anon = type { %union.anon, %union.anon.4 }
%union.anon = type { i32 }
%union.anon.4 = type { i32 }
%union.anon.5 = type { %union._ir_val }
%union._ir_val = type { double }
%union.anon.13 = type { ptr }
%struct._ir_strtab = type { ptr, i32, i32, i32, i32, ptr, i32, i32 }

; Function Attrs: alwaysinline nounwind uwtable
define internal ptr @ir_bitset_malloc(i32 noundef %0) #2 {
  %2 = alloca i32, align 4
  store i32 %0, ptr %2, align 4, !tbaa !33
  %3 = load i32, ptr %2, align 4, !tbaa !33
  %4 = call i32 @ir_bitset_len(i32 noundef %3)
  %5 = zext i32 %4 to i64
  %6 = call noalias ptr @_ecalloc(i64 noundef %5, i64 noundef 8) #11
  ret ptr %6
}

; Function Attrs: alwaysinline nounwind uwtable
define internal i32 @ir_bitset_len(i32 noundef %0) #2 {
  %2 = alloca i32, align 4
  store i32 %0, ptr %2, align 4, !tbaa !33
  %3 = load i32, ptr %2, align 4, !tbaa !33
  %4 = add i32 %3, 63
  %5 = udiv i32 %4, 64
  ret i32 %5
}

; Function Attrs: nounwind uwtable
define internal void @ir_gvn_hash_free(ptr noundef %0) #0 {
  %2 = alloca ptr, align 8
  store ptr %0, ptr %2, align 8, !tbaa !9
  %3 = load ptr, ptr %2, align 8, !tbaa !9
  %4 = getelementptr inbounds nuw %struct._ir_gvn_hash, ptr %3, i32 0, i32 1
  %5 = load ptr, ptr %4, align 8, !tbaa !36
  call void @_efree(ptr noundef %5)
  %6 = load ptr, ptr %2, align 8, !tbaa !9
  %7 = getelementptr inbounds nuw %struct._ir_gvn_hash, ptr %6, i32 0, i32 2
  %8 = load ptr, ptr %7, align 8, !tbaa !37
  call void @_efree(ptr noundef %8)
  ret void
}

; Function Attrs: alwaysinline nounwind uwtable
define internal void @ir_bitqueue_free(ptr noundef %0) #2 {
  %2 = alloca ptr, align 8
  store ptr %0, ptr %2, align 8, !tbaa !38
  %3 = load ptr, ptr %2, align 8, !tbaa !38
  %4 = getelementptr inbounds nuw %struct._ir_bitqueue, ptr %3, i32 0, i32 2
  %5 = load ptr, ptr %4, align 8, !tbaa !44
  call void @_efree(ptr noundef %5)
  ret void
}

; Function Attrs: alwaysinline nounwind uwtable
define internal void @ir_bitqueue_init(ptr noundef %0, i32 noundef %1) #2 {
  %3 = alloca ptr, align 8
  %4 = alloca i32, align 4
  store ptr %0, ptr %3, align 8, !tbaa !38
  store i32 %1, ptr %4, align 4, !tbaa !33
  %5 = load i32, ptr %4, align 4, !tbaa !33
  %6 = call i32 @ir_bitset_len(i32 noundef %5)
  %7 = load ptr, ptr %3, align 8, !tbaa !38
  %8 = getelementptr inbounds nuw %struct._ir_bitqueue, ptr %7, i32 0, i32 0
  store i32 %6, ptr %8, align 8, !tbaa !40
  %9 = load ptr, ptr %3, align 8, !tbaa !38
  %10 = getelementptr inbounds nuw %struct._ir_bitqueue, ptr %9, i32 0, i32 0
  %11 = load i32, ptr %10, align 8, !tbaa !40
  %12 = sub i32 %11, 1
  %13 = load ptr, ptr %3, align 8, !tbaa !38
  %14 = getelementptr inbounds nuw %struct._ir_bitqueue, ptr %13, i32 0, i32 1
  store i32 %12, ptr %14, align 4, !tbaa !43
  %15 = load i32, ptr %4, align 4, !tbaa !33
  %16 = call ptr @ir_bitset_malloc(i32 noundef %15)
  %17 = load ptr, ptr %3, align 8, !tbaa !38
  %18 = getelementptr inbounds nuw %struct._ir_bitqueue, ptr %17, i32 0, i32 2
  store ptr %16, ptr %18, align 8, !tbaa !44
  ret void
}

; Function Attrs: nounwind uwtable
define internal void @ir_gvn_hash_init(ptr noundef %0, ptr noundef %1) #0 {
  %3 = alloca ptr, align 8
  %4 = alloca ptr, align 8
  %5 = alloca i32, align 4
  store ptr %0, ptr %3, align 8, !tbaa !4
  store ptr %1, ptr %4, align 8, !tbaa !9
  call void @llvm.lifetime.start.p0(i64 4, ptr %5) #10
  %6 = load ptr, ptr %3, align 8, !tbaa !4
  %7 = getelementptr inbounds nuw %struct._ir_ctx, ptr %6, i32 0, i32 2
  %8 = load i32, ptr %7, align 4, !tbaa !32
  %9 = sub nsw i32 %8, 1
  store i32 %9, ptr %5, align 4, !tbaa !33
  %10 = load i32, ptr %5, align 4, !tbaa !33
  %11 = lshr i32 %10, 1
  %12 = load i32, ptr %5, align 4, !tbaa !33
  %13 = or i32 %12, %11
  store i32 %13, ptr %5, align 4, !tbaa !33
  %14 = load i32, ptr %5, align 4, !tbaa !33
  %15 = lshr i32 %14, 2
  %16 = load i32, ptr %5, align 4, !tbaa !33
  %17 = or i32 %16, %15
  store i32 %17, ptr %5, align 4, !tbaa !33
  %18 = load i32, ptr %5, align 4, !tbaa !33
  %19 = lshr i32 %18, 4
  %20 = load i32, ptr %5, align 4, !tbaa !33
  %21 = or i32 %20, %19
  store i32 %21, ptr %5, align 4, !tbaa !33
  %22 = load i32, ptr %5, align 4, !tbaa !33
  %23 = lshr i32 %22, 8
  %24 = load i32, ptr %5, align 4, !tbaa !33
  %25 = or i32 %24, %23
  store i32 %25, ptr %5, align 4, !tbaa !33
  %26 = load i32, ptr %5, align 4, !tbaa !33
  %27 = lshr i32 %26, 16
  %28 = load i32, ptr %5, align 4, !tbaa !33
  %29 = or i32 %28, %27
  store i32 %29, ptr %5, align 4, !tbaa !33
  %30 = load i32, ptr %5, align 4, !tbaa !33
  %31 = load ptr, ptr %4, align 8, !tbaa !9
  %32 = getelementptr inbounds nuw %struct._ir_gvn_hash, ptr %31, i32 0, i32 0
  store i32 %30, ptr %32, align 8, !tbaa !34
  %33 = load i32, ptr %5, align 4, !tbaa !33
  %34 = add i32 %33, 1
  %35 = zext i32 %34 to i64
  %36 = call noalias ptr @_ecalloc(i64 noundef %35, i64 noundef 4) #11
  %37 = load ptr, ptr %4, align 8, !tbaa !9
  %38 = getelementptr inbounds nuw %struct._ir_gvn_hash, ptr %37, i32 0, i32 1
  store ptr %36, ptr %38, align 8, !tbaa !36
  %39 = load ptr, ptr %3, align 8, !tbaa !4
  %40 = getelementptr inbounds nuw %struct._ir_ctx, ptr %39, i32 0, i32 2
  %41 = load i32, ptr %40, align 4, !tbaa !32
  %42 = sext i32 %41 to i64
  %43 = call noalias ptr @_ecalloc(i64 noundef %42, i64 noundef 4) #11
  %44 = load ptr, ptr %4, align 8, !tbaa !9
  %45 = getelementptr inbounds nuw %struct._ir_gvn_hash, ptr %44, i32 0, i32 2
  store ptr %43, ptr %45, align 8, !tbaa !37
  call void @llvm.lifetime.end.p0(i64 4, ptr %5) #10
  ret void
}

; Function Attrs: nounwind uwtable
define hidden i32 @ir_sccp(ptr noundef %0) #0 {
  %2 = alloca ptr, align 8
  %3 = alloca %struct._ir_bitqueue, align 8
  %4 = alloca %struct._ir_bitqueue, align 8
  %5 = alloca ptr, align 8
  %6 = alloca ptr, align 8
  %7 = alloca %struct._ir_gvn_hash, align 8
  store ptr %0, ptr %2, align 8, !tbaa !4
  call void @llvm.lifetime.start.p0(i64 16, ptr %3) #10
  call void @llvm.lifetime.start.p0(i64 16, ptr %4) #10
  call void @llvm.lifetime.start.p0(i64 8, ptr %5) #10
  call void @llvm.lifetime.start.p0(i64 8, ptr %6) #10
  store ptr null, ptr %6, align 8, !tbaa !9
  call void @llvm.lifetime.start.p0(i64 24, ptr %7) #10
  %8 = load ptr, ptr %2, align 8, !tbaa !4
  %9 = getelementptr inbounds nuw %struct._ir_ctx, ptr %8, i32 0, i32 6
  %10 = load i32, ptr %9, align 4, !tbaa !11
  %11 = or i32 %10, 16
  store i32 %11, ptr %9, align 4, !tbaa !11
  %12 = load ptr, ptr %2, align 8, !tbaa !4
  %13 = getelementptr inbounds nuw %struct._ir_ctx, ptr %12, i32 0, i32 6
  %14 = load i32, ptr %13, align 4, !tbaa !11
  %15 = and i32 %14, 33554432
  %16 = icmp ne i32 %15, 0
  br i1 %16, label %17, label %19

17:                                               ; preds = %1
  %18 = load ptr, ptr %2, align 8, !tbaa !4
  call void @ir_gvn_hash_init(ptr noundef %18, ptr noundef %7)
  store ptr %7, ptr %6, align 8, !tbaa !9
  br label %19

19:                                               ; preds = %17, %1
  %20 = load ptr, ptr %2, align 8, !tbaa !4
  %21 = getelementptr inbounds nuw %struct._ir_ctx, ptr %20, i32 0, i32 1
  %22 = load i32, ptr %21, align 8, !tbaa !30
  call void @ir_bitqueue_init(ptr noundef %4, i32 noundef %22)
  %23 = load ptr, ptr %2, align 8, !tbaa !4
  %24 = getelementptr inbounds nuw %struct._ir_ctx, ptr %23, i32 0, i32 1
  %25 = load i32, ptr %24, align 8, !tbaa !30
  call void @ir_bitqueue_init(ptr noundef %3, i32 noundef %25)
  %26 = load ptr, ptr %2, align 8, !tbaa !4
  %27 = getelementptr inbounds nuw %struct._ir_ctx, ptr %26, i32 0, i32 1
  %28 = load i32, ptr %27, align 8, !tbaa !30
  %29 = sext i32 %28 to i64
  %30 = call noalias ptr @_ecalloc(i64 noundef %29, i64 noundef 16) #11
  store ptr %30, ptr %5, align 8, !tbaa !31
  %31 = load ptr, ptr %2, align 8, !tbaa !4
  %32 = load ptr, ptr %5, align 8, !tbaa !31
  %33 = load ptr, ptr %6, align 8, !tbaa !9
  call void @ir_sccp_analyze(ptr noundef %31, ptr noundef %32, ptr noundef %3, ptr noundef %33, ptr noundef %4)
  %34 = load ptr, ptr %2, align 8, !tbaa !4
  %35 = load ptr, ptr %5, align 8, !tbaa !31
  call void @ir_sccp_transform(ptr noundef %34, ptr noundef %35, ptr noundef %3, ptr noundef %4)
  %36 = load ptr, ptr %5, align 8, !tbaa !31
  call void @_efree(ptr noundef %36)
  call void @ir_bitqueue_free(ptr noundef %3)
  %37 = load ptr, ptr %6, align 8, !tbaa !9
  %38 = icmp ne ptr %37, null
  br i1 %38, label %39, label %41

39:                                               ; preds = %19
  %40 = load ptr, ptr %6, align 8, !tbaa !9
  call void @ir_gvn_hash_free(ptr noundef %40)
  br label %41

41:                                               ; preds = %39, %19
  %42 = load ptr, ptr %2, align 8, !tbaa !4
  %43 = getelementptr inbounds nuw %struct._ir_ctx, ptr %42, i32 0, i32 6
  %44 = load i32, ptr %43, align 4, !tbaa !11
  %45 = or i32 %44, 67108864
  store i32 %45, ptr %43, align 4, !tbaa !11
  %46 = load ptr, ptr %2, align 8, !tbaa !4
  call void @ir_iter_opt(ptr noundef %46, ptr noundef %4)
  call void @ir_bitqueue_free(ptr noundef %4)
  %47 = load ptr, ptr %2, align 8, !tbaa !4
  %48 = getelementptr inbounds nuw %struct._ir_ctx, ptr %47, i32 0, i32 6
  %49 = load i32, ptr %48, align 4, !tbaa !11
  %50 = and i32 %49, -17
  store i32 %50, ptr %48, align 4, !tbaa !11
  call void @llvm.lifetime.end.p0(i64 24, ptr %7) #10
  call void @llvm.lifetime.end.p0(i64 8, ptr %6) #10
  call void @llvm.lifetime.end.p0(i64 8, ptr %5) #10
  call void @llvm.lifetime.end.p0(i64 16, ptr %4) #10
  call void @llvm.lifetime.end.p0(i64 16, ptr %3) #10
  ret i32 1
}