; Function Attrs: nounwind uwtable
define hidden noundef i32 @ir_sccp(ptr noundef %0) local_unnamed_addr #0 {
  %2 = alloca %struct._ir_bitqueue, align 8
  %3 = alloca %struct._ir_bitqueue, align 8
  %4 = alloca %struct._ir_gvn_hash, align 8
  call void @llvm.lifetime.start.p0(i64 16, ptr nonnull %2) #13
  call void @llvm.lifetime.start.p0(i64 16, ptr nonnull %3) #13
  call void @llvm.lifetime.start.p0(i64 24, ptr nonnull %4) #13
  %5 = getelementptr inbounds nuw i8, ptr %0, i64 28
  %6 = load i32, ptr %5, align 4, !tbaa !4
  %7 = or i32 %6, 16
  store i32 %7, ptr %5, align 4, !tbaa !4
  %8 = and i32 %6, 33554432
  %.not = icmp eq i32 %8, 0
  br i1 %.not, label %29, label %9

9:                                                ; preds = %1
  %.0.sroa.gep19 = getelementptr inbounds nuw i8, ptr %4, i64 16
  %.0.sroa.gep = getelementptr inbounds nuw i8, ptr %4, i64 8
  %10 = getelementptr inbounds nuw i8, ptr %0, i64 12
  %11 = load i32, ptr %10, align 4, !tbaa !26
  %12 = add nsw i32 %11, -1
  %13 = lshr i32 %12, 1
  %14 = or i32 %13, %12
  %15 = lshr i32 %14, 2
  %16 = or i32 %15, %14
  %17 = lshr i32 %16, 4
  %18 = or i32 %17, %16
  %19 = lshr i32 %18, 8
  %20 = or i32 %19, %18
  %21 = lshr i32 %20, 16
  %22 = or i32 %21, %20
  store i32 %22, ptr %4, align 8, !tbaa !27
  %23 = add i32 %22, 1
  %24 = zext i32 %23 to i64
  %25 = tail call noalias ptr @_ecalloc(i64 noundef %24, i64 noundef 4) #14
  store ptr %25, ptr %.0.sroa.gep, align 8, !tbaa !29
  %26 = load i32, ptr %10, align 4, !tbaa !26
  %27 = sext i32 %26 to i64
  %28 = tail call noalias ptr @_ecalloc(i64 noundef %27, i64 noundef 4) #14
  store ptr %28, ptr %.0.sroa.gep19, align 8, !tbaa !30
  br label %29

29:                                               ; preds = %9, %1
  %.0.sroa.phi = phi ptr [ %.0.sroa.gep, %9 ], [ inttoptr (i64 8 to ptr), %1 ]
  %.0.sroa.phi18 = phi ptr [ %.0.sroa.gep19, %9 ], [ inttoptr (i64 16 to ptr), %1 ]
  %.0 = phi ptr [ %4, %9 ], [ null, %1 ]
  %30 = getelementptr inbounds nuw i8, ptr %0, i64 8
  %31 = load i32, ptr %30, align 8, !tbaa !31
  %32 = add i32 %31, 63
  %33 = lshr i32 %32, 6
  store i32 %33, ptr %3, align 8, !tbaa !32
  %34 = add nsw i32 %33, -1
  %35 = getelementptr inbounds nuw i8, ptr %3, i64 4
  store i32 %34, ptr %35, align 4, !tbaa !35
  %36 = zext nneg i32 %33 to i64
  %37 = tail call noalias ptr @_ecalloc(i64 noundef %36, i64 noundef 8) #14
  %38 = getelementptr inbounds nuw i8, ptr %3, i64 8
  store ptr %37, ptr %38, align 8, !tbaa !36
  %39 = load i32, ptr %30, align 8, !tbaa !31
  %40 = add i32 %39, 63
  %41 = lshr i32 %40, 6
  store i32 %41, ptr %2, align 8, !tbaa !32
  %42 = add nsw i32 %41, -1
  %43 = getelementptr inbounds nuw i8, ptr %2, i64 4
  store i32 %42, ptr %43, align 4, !tbaa !35
  %44 = zext nneg i32 %41 to i64
  %45 = tail call noalias ptr @_ecalloc(i64 noundef %44, i64 noundef 8) #14
  %46 = getelementptr inbounds nuw i8, ptr %2, i64 8
  store ptr %45, ptr %46, align 8, !tbaa !36
  %47 = load i32, ptr %30, align 8, !tbaa !31
  %48 = sext i32 %47 to i64
  %49 = tail call noalias ptr @_ecalloc(i64 noundef %48, i64 noundef 16) #14
  call fastcc void @ir_sccp_analyze(ptr noundef nonnull %0, ptr noundef %49, ptr noundef %2, ptr noundef %.0, ptr noundef %3)
  call fastcc void @ir_sccp_transform(ptr noundef nonnull %0, ptr noundef %49, ptr noundef %2, ptr noundef %3)
  call void @_efree(ptr noundef %49) #13
  %50 = load ptr, ptr %46, align 8, !tbaa !36
  call void @_efree(ptr noundef %50) #13
  %.not17 = icmp eq ptr %.0, null
  br i1 %.not17, label %54, label %51

51:                                               ; preds = %29
  %52 = load ptr, ptr %.0.sroa.phi, align 8, !tbaa !29
  call void @_efree(ptr noundef %52) #13
  %53 = load ptr, ptr %.0.sroa.phi18, align 8, !tbaa !30
  call void @_efree(ptr noundef %53) #13
  br label %54

54:                                               ; preds = %51, %29
  %55 = load i32, ptr %5, align 4, !tbaa !4
  %56 = or i32 %55, 67108864
  store i32 %56, ptr %5, align 4, !tbaa !4
  call fastcc void @ir_iter_opt(ptr noundef nonnull %0, ptr noundef %3)
  %57 = load ptr, ptr %38, align 8, !tbaa !36
  call void @_efree(ptr noundef %57) #13
  %58 = load i32, ptr %5, align 4, !tbaa !4
  %59 = and i32 %58, -17
  store i32 %59, ptr %5, align 4, !tbaa !4
  call void @llvm.lifetime.end.p0(i64 24, ptr nonnull %4) #13
  call void @llvm.lifetime.end.p0(i64 16, ptr nonnull %3) #13
  call void @llvm.lifetime.end.p0(i64 16, ptr nonnull %2) #13
  ret i32 1
}